target datalayout = "e-m:e-p270:32:32-p271:32:32-p272:64:64-i64:64-i128:128-f80:128-n8:16:32:64-S128"
target triple = "x86_64-pc-linux-gnu"

%"class.testing::internal::ValuesInIteratorRangeGenerator.208" = type { %"class.testing::internal::ParamGeneratorInterface.209", %"class.std::vector.210" }
%"class.testing::internal::ParamGeneratorInterface.209" = type { ptr }
%"class.std::vector.210" = type { %"struct.std::_Vector_base.211" }
%"struct.std::_Vector_base.211" = type { %"struct.std::_Vector_base<opencv_test::(anonymous namespace)::BorderType3x3ROI, std::allocator<opencv_test::(anonymous namespace)::BorderType3x3ROI>>::_Vector_impl" }
%"struct.std::_Vector_base<opencv_test::(anonymous namespace)::BorderType3x3ROI, std::allocator<opencv_test::(anonymous namespace)::BorderType3x3ROI>>::_Vector_impl" = type { %"struct.std::_Vector_base<opencv_test::(anonymous namespace)::BorderType3x3ROI, std::allocator<opencv_test::(anonymous namespace)::BorderType3x3ROI>>::_Vector_impl_data" }
%"struct.std::_Vector_base<opencv_test::(anonymous namespace)::BorderType3x3ROI, std::allocator<opencv_test::(anonymous namespace)::BorderType3x3ROI>>::_Vector_impl_data" = type { ptr, ptr, ptr }
%"class.__gnu_cxx::__normal_iterator.216" = type { ptr }
%"class.testing::internal::ValuesInIteratorRangeGenerator<opencv_test::(anonymous namespace)::BorderType3x3ROI>::Iterator" = type { %"class.testing::internal::ParamIteratorInterface.215", ptr, %"class.__gnu_cxx::__normal_iterator.216", %"class.testing::internal::scoped_ptr.217" }
%"class.testing::internal::ParamIteratorInterface.215" = type { ptr }
%"class.testing::internal::scoped_ptr.217" = type { ptr }

; Function Attrs: mustprogress nounwind uwtable
define internal void @_ZN7testing8internal22ParamIteratorInterfaceIN11opencv_test12_GLOBAL__N_116BorderType3x3ROIEED2Ev(ptr noundef nonnull align 8 dereferenceable(8) %0) unnamed_addr #9 align 2 {
  %2 = alloca ptr, align 8
  store ptr %0, ptr %2, align 8, !tbaa !715
  ret void
}

; Function Attrs: mustprogress nounwind uwtable
define internal void @_ZN7testing8internal10scoped_ptrIKN11opencv_test12_GLOBAL__N_116BorderType3x3ROIEEC2EPS5_(ptr noundef nonnull align 8 dereferenceable(8) %0, ptr noundef %1) unnamed_addr #9 align 2 {
  %3 = alloca ptr, align 8
  %4 = alloca ptr, align 8
  store ptr %0, ptr %3, align 8, !tbaa !717
  store ptr %1, ptr %4, align 8, !tbaa !128
  %5 = load ptr, ptr %3, align 8
  %6 = getelementptr inbounds nuw %"class.testing::internal::scoped_ptr.217", ptr %5, i32 0, i32 0
  %7 = load ptr, ptr %4, align 8, !tbaa !128
  store ptr %7, ptr %6, align 8, !tbaa !719
  ret void
}

; Function Attrs: inlinehint mustprogress nounwind uwtable
define internal void @_ZN7testing8internal22ParamIteratorInterfaceIN11opencv_test12_GLOBAL__N_116BorderType3x3ROIEEC2Ev(ptr noundef nonnull align 8 dereferenceable(8) %0) unnamed_addr #4 align 2 {
  %2 = alloca ptr, align 8
  store ptr %0, ptr %2, align 8, !tbaa !715
  %3 = load ptr, ptr %2, align 8
  store ptr getelementptr inbounds inrange(-16, 56) ({ [9 x ptr] }, ptr @_ZTVN7testing8internal22ParamIteratorInterfaceIN11opencv_test12_GLOBAL__N_116BorderType3x3ROIEEE, i32 0, i32 0, i32 2), ptr %3, align 8, !tbaa !20
  ret void
}

; Function Attrs: mustprogress nounwind uwtable
define internal void @_ZN9__gnu_cxx17__normal_iteratorIPKN11opencv_test12_GLOBAL__N_116BorderType3x3ROIESt6vectorIS3_SaIS3_EEEC2ERKS5_(ptr noundef nonnull align 8 dereferenceable(8) %0, ptr noundef nonnull align 8 dereferenceable(8) %1) unnamed_addr #9 align 2 {
  %3 = alloca ptr, align 8
  %4 = alloca ptr, align 8
  store ptr %0, ptr %3, align 8, !tbaa !712
  store ptr %1, ptr %4, align 8, !tbaa !697
  %5 = load ptr, ptr %3, align 8
  %6 = getelementptr inbounds nuw %"class.__gnu_cxx::__normal_iterator.216", ptr %5, i32 0, i32 0
  %7 = load ptr, ptr %4, align 8, !tbaa !697
  %8 = load ptr, ptr %7, align 8, !tbaa !128
  store ptr %8, ptr %6, align 8, !tbaa !714
  ret void
}

; Function Attrs: mustprogress uwtable
define internal void @_ZN7testing8internal30ValuesInIteratorRangeGeneratorIN11opencv_test12_GLOBAL__N_116BorderType3x3ROIEE8IteratorC2EPKNS0_23ParamGeneratorInterfaceIS4_EEN9__gnu_cxx17__normal_iteratorIPKS4_St6vectorIS4_SaIS4_EEEE(ptr noundef nonnull align 8 dereferenceable(32) %0, ptr noundef %1, ptr %2) unnamed_addr #6 align 2 personality ptr @__gxx_personality_v0 {
  %4 = alloca %"class.__gnu_cxx::__normal_iterator.216", align 8
  %5 = alloca ptr, align 8
  %6 = alloca ptr, align 8
  %7 = alloca ptr, align 8
  %8 = alloca i32, align 4
  %9 = getelementptr inbounds nuw %"class.__gnu_cxx::__normal_iterator.216", ptr %4, i32 0, i32 0
  store ptr %2, ptr %9, align 8
  store ptr %0, ptr %5, align 8, !tbaa !704
  store ptr %1, ptr %6, align 8, !tbaa !684
  %10 = load ptr, ptr %5, align 8
  call void @_ZN7testing8internal22ParamIteratorInterfaceIN11opencv_test12_GLOBAL__N_116BorderType3x3ROIEEC2Ev(ptr noundef nonnull align 8 dereferenceable(8) %10) #3
  store ptr getelementptr inbounds inrange(-16, 56) ({ [9 x ptr] }, ptr @_ZTVN7testing8internal30ValuesInIteratorRangeGeneratorIN11opencv_test12_GLOBAL__N_116BorderType3x3ROIEE8IteratorE, i32 0, i32 0, i32 2), ptr %10, align 8, !tbaa !20
  %11 = getelementptr inbounds nuw %"class.testing::internal::ValuesInIteratorRangeGenerator<opencv_test::(anonymous namespace)::BorderType3x3ROI>::Iterator", ptr %10, i32 0, i32 1
  %12 = load ptr, ptr %6, align 8, !tbaa !684
  store ptr %12, ptr %11, align 8, !tbaa !706
  %13 = getelementptr inbounds nuw %"class.testing::internal::ValuesInIteratorRangeGenerator<opencv_test::(anonymous namespace)::BorderType3x3ROI>::Iterator", ptr %10, i32 0, i32 2
  call void @llvm.memcpy.p0.p0.i64(ptr align 8 %13, ptr align 8 %4, i64 8, i1 false), !tbaa.struct !711
  %14 = getelementptr inbounds nuw %"class.testing::internal::ValuesInIteratorRangeGenerator<opencv_test::(anonymous namespace)::BorderType3x3ROI>::Iterator", ptr %10, i32 0, i32 3
  invoke void @_ZN7testing8internal10scoped_ptrIKN11opencv_test12_GLOBAL__N_116BorderType3x3ROIEEC2EPS5_(ptr noundef nonnull align 8 dereferenceable(8) %14, ptr noundef null)
          to label %15 unwind label %16

15:                                               ; preds = %3
  ret void

16:                                               ; preds = %3
  %17 = landingpad { ptr, i32 }
          cleanup
  %18 = extractvalue { ptr, i32 } %17, 0
  store ptr %18, ptr %7, align 8
  %19 = extractvalue { ptr, i32 } %17, 1
  store i32 %19, ptr %8, align 4
  call void @_ZN7testing8internal22ParamIteratorInterfaceIN11opencv_test12_GLOBAL__N_116BorderType3x3ROIEED2Ev(ptr noundef nonnull align 8 dereferenceable(8) %10) #3
  br label %20

20:                                               ; preds = %16
  %21 = load ptr, ptr %7, align 8
  %22 = load i32, ptr %8, align 4
  %23 = insertvalue { ptr, i32 } poison, ptr %21, 0
  %24 = insertvalue { ptr, i32 } %23, i32 %22, 1
  resume { ptr, i32 } %24
}

; Function Attrs: mustprogress nounwind uwtable
define internal ptr @_ZNKSt6vectorIN11opencv_test12_GLOBAL__N_116BorderType3x3ROIESaIS2_EE3endEv(ptr noundef nonnull align 8 dereferenceable(24) %0) #9 align 2 {
  %2 = alloca %"class.__gnu_cxx::__normal_iterator.216", align 8
  %3 = alloca ptr, align 8
  store ptr %0, ptr %3, align 8, !tbaa !687
  %4 = load ptr, ptr %3, align 8
  %5 = getelementptr inbounds nuw %"struct.std::_Vector_base.211", ptr %4, i32 0, i32 0
  %6 = getelementptr inbounds nuw %"struct.std::_Vector_base<opencv_test::(anonymous namespace)::BorderType3x3ROI, std::allocator<opencv_test::(anonymous namespace)::BorderType3x3ROI>>::_Vector_impl_data", ptr %5, i32 0, i32 1
  call void @_ZN9__gnu_cxx17__normal_iteratorIPKN11opencv_test12_GLOBAL__N_116BorderType3x3ROIESt6vectorIS3_SaIS3_EEEC2ERKS5_(ptr noundef nonnull align 8 dereferenceable(8) %2, ptr noundef nonnull align 8 dereferenceable(8) %6) #3
  %7 = getelementptr inbounds nuw %"class.__gnu_cxx::__normal_iterator.216", ptr %2, i32 0, i32 0
  %8 = load ptr, ptr %7, align 8
  ret ptr %8
}

; Function Attrs: mustprogress uwtable
define internal noundef ptr @_ZNK7testing8internal30ValuesInIteratorRangeGeneratorIN11opencv_test12_GLOBAL__N_116BorderType3x3ROIEE3EndEv(ptr noundef nonnull align 8 dereferenceable(32) %0) unnamed_addr #6 align 2 personality ptr @__gxx_personality_v0 {
  %2 = alloca ptr, align 8
  %3 = alloca %"class.__gnu_cxx::__normal_iterator.216", align 8
  %4 = alloca ptr, align 8
  %5 = alloca i32, align 4
  store ptr %0, ptr %2, align 8, !tbaa !682
  %6 = load ptr, ptr %2, align 8
  %7 = call noalias noundef nonnull ptr @_Znwm(i64 noundef 32) #24
  %8 = getelementptr inbounds nuw %"class.testing::internal::ValuesInIteratorRangeGenerator.208", ptr %6, i32 0, i32 1
  %9 = call ptr @_ZNKSt6vectorIN11opencv_test12_GLOBAL__N_116BorderType3x3ROIESaIS2_EE3endEv(ptr noundef nonnull align 8 dereferenceable(24) %8) #3
  %10 = getelementptr inbounds nuw %"class.__gnu_cxx::__normal_iterator.216", ptr %3, i32 0, i32 0
  store ptr %9, ptr %10, align 8
  %11 = getelementptr inbounds nuw %"class.__gnu_cxx::__normal_iterator.216", ptr %3, i32 0, i32 0
  %12 = load ptr, ptr %11, align 8
  invoke void @_ZN7testing8internal30ValuesInIteratorRangeGeneratorIN11opencv_test12_GLOBAL__N_116BorderType3x3ROIEE8IteratorC2EPKNS0_23ParamGeneratorInterfaceIS4_EEN9__gnu_cxx17__normal_iteratorIPKS4_St6vectorIS4_SaIS4_EEEE(ptr noundef nonnull align 8 dereferenceable(32) %7, ptr noundef %6, ptr %12)
          to label %13 unwind label %14

13:                                               ; preds = %1
  ret ptr %7

14:                                               ; preds = %1
  %15 = landingpad { ptr, i32 }
          cleanup
  %16 = extractvalue { ptr, i32 } %15, 0
  store ptr %16, ptr %4, align 8
  %17 = extractvalue { ptr, i32 } %15, 1
  store i32 %17, ptr %5, align 4
  call void @_ZdlPv(ptr noundef %7) #25
  br label %18

18:                                               ; preds = %14
  %19 = load ptr, ptr %4, align 8
  %20 = load i32, ptr %5, align 4
  %21 = insertvalue { ptr, i32 } poison, ptr %19, 0
  %22 = insertvalue { ptr, i32 } %21, i32 %20, 1
  resume { ptr, i32 } %22
}